target datalayout = "e-m:e-p270:32:32-p271:32:32-p272:64:64-i64:64-i128:128-f80:128-n8:16:32:64-S128"
target triple = "x86_64-pc-linux-gnu"

%"class.cxx20::expected" = type { %"struct.cxx20::detail::expected_move_assign_base" }
%"struct.cxx20::detail::expected_move_assign_base" = type { %"struct.cxx20::detail::expected_copy_assign_base" }
%"struct.cxx20::detail::expected_copy_assign_base" = type { %"struct.cxx20::detail::expected_move_base" }
%"struct.cxx20::detail::expected_move_base" = type { %"struct.cxx20::detail::expected_copy_base" }
%"struct.cxx20::detail::expected_copy_base" = type { %"struct.cxx20::detail::expected_operations_base" }
%"struct.cxx20::detail::expected_operations_base" = type { %"struct.cxx20::detail::expected_view_base" }
%"struct.cxx20::detail::expected_view_base" = type { %"struct.cxx20::detail::expected_storage_base" }
%"struct.cxx20::detail::expected_storage_base" = type { i8, %union.anon }
%union.anon = type { %"class.cxx20::unexpected" }
%"class.cxx20::unexpected" = type { %"class.WasmEdge::ErrCode" }
%"class.WasmEdge::ErrCode" = type { %"union.WasmEdge::ErrCode::InnerT" }
%"union.WasmEdge::ErrCode::InnerT" = type { i32 }
%"struct.WasmEdge::RefVariant" = type { <2 x i64> }
%"class.WasmEdge::ValType" = type { %union.anon.5 }
%union.anon.5 = type { %struct.anon }
%struct.anon = type { i8, i8, i8, i8, i32 }
%"struct.std::array" = type { [2 x i64] }

; Function Attrs: mustprogress nounwind uwtable
define linkonce_odr hidden void @_ZN5cxx206detail21expected_storage_baseIvN8WasmEdge7ErrCodeELb0ELb1EEC2Ev(ptr noundef nonnull align 4 dereferenceable(8) %0) unnamed_addr #0 comdat align 2 {
  %2 = alloca ptr, align 8
  store ptr %0, ptr %2, align 8
  %3 = load ptr, ptr %2, align 8
  %4 = getelementptr inbounds %"struct.cxx20::detail::expected_storage_base", ptr %3, i32 0, i32 0
  store i8 1, ptr %4, align 4
  %5 = getelementptr inbounds %"struct.cxx20::detail::expected_storage_base", ptr %3, i32 0, i32 1
  store i8 0, ptr %5, align 4
  ret void
}

; Function Attrs: mustprogress nounwind uwtable
define linkonce_odr hidden void @_ZN5cxx206detail18expected_view_baseIvN8WasmEdge7ErrCodeEEC2Ev(ptr noundef nonnull align 4 dereferenceable(8) %0) unnamed_addr #0 comdat align 2 {
  %2 = alloca ptr, align 8
  store ptr %0, ptr %2, align 8
  %3 = load ptr, ptr %2, align 8
  call void @_ZN5cxx206detail21expected_storage_baseIvN8WasmEdge7ErrCodeELb0ELb1EEC2Ev(ptr noundef nonnull align 4 dereferenceable(8) %3) #15
  ret void
}

; Function Attrs: mustprogress nounwind uwtable
define linkonce_odr hidden void @_ZN5cxx206detail24expected_operations_baseIvN8WasmEdge7ErrCodeEEC2Ev(ptr noundef nonnull align 4 dereferenceable(8) %0) unnamed_addr #0 comdat align 2 {
  %2 = alloca ptr, align 8
  store ptr %0, ptr %2, align 8
  %3 = load ptr, ptr %2, align 8
  call void @_ZN5cxx206detail18expected_view_baseIvN8WasmEdge7ErrCodeEEC2Ev(ptr noundef nonnull align 4 dereferenceable(8) %3) #15
  ret void
}

; Function Attrs: mustprogress nounwind uwtable
define linkonce_odr hidden void @_ZN5cxx206detail18expected_copy_baseIvN8WasmEdge7ErrCodeELb0EEC2Ev(ptr noundef nonnull align 4 dereferenceable(8) %0) unnamed_addr #0 comdat align 2 {
  %2 = alloca ptr, align 8
  store ptr %0, ptr %2, align 8
  %3 = load ptr, ptr %2, align 8
  call void @_ZN5cxx206detail24expected_operations_baseIvN8WasmEdge7ErrCodeEEC2Ev(ptr noundef nonnull align 4 dereferenceable(8) %3) #15
  ret void
}

; Function Attrs: mustprogress nounwind uwtable
define linkonce_odr hidden void @_ZN5cxx206detail18expected_move_baseIvN8WasmEdge7ErrCodeELb0EEC2Ev(ptr noundef nonnull align 4 dereferenceable(8) %0) unnamed_addr #0 comdat align 2 {
  %2 = alloca ptr, align 8
  store ptr %0, ptr %2, align 8
  %3 = load ptr, ptr %2, align 8
  call void @_ZN5cxx206detail18expected_copy_baseIvN8WasmEdge7ErrCodeELb0EEC2Ev(ptr noundef nonnull align 4 dereferenceable(8) %3) #15
  ret void
}

; Function Attrs: mustprogress nounwind uwtable
define linkonce_odr hidden void @_ZN5cxx206detail25expected_copy_assign_baseIvN8WasmEdge7ErrCodeELb0EEC2Ev(ptr noundef nonnull align 4 dereferenceable(8) %0) unnamed_addr #0 comdat align 2 {
  %2 = alloca ptr, align 8
  store ptr %0, ptr %2, align 8
  %3 = load ptr, ptr %2, align 8
  call void @_ZN5cxx206detail18expected_move_baseIvN8WasmEdge7ErrCodeELb0EEC2Ev(ptr noundef nonnull align 4 dereferenceable(8) %3) #15
  ret void
}

; Function Attrs: mustprogress nounwind uwtable
define linkonce_odr hidden noundef nonnull align 8 dereferenceable(8) ptr @_ZNSt14__array_traitsImLm2EE6_S_refERA2_Kmm(ptr noundef nonnull align 8 dereferenceable(16) %0, i64 noundef %1) #0 comdat align 2 {
  %3 = alloca ptr, align 8
  %4 = alloca i64, align 8
  store ptr %0, ptr %3, align 8
  store i64 %1, ptr %4, align 8
  %5 = load ptr, ptr %3, align 8
  %6 = load i64, ptr %4, align 8
  %7 = getelementptr inbounds [2 x i64], ptr %5, i64 0, i64 %6
  ret ptr %7
}

; Function Attrs: mustprogress nounwind uwtable
define linkonce_odr hidden noundef zeroext i1 @_ZNK8WasmEdge7ValType9isRefTypeEv(ptr noundef nonnull align 4 dereferenceable(8) %0) #0 comdat align 2 {
  %2 = alloca i1, align 1
  %3 = alloca ptr, align 8
  store ptr %0, ptr %3, align 8
  %4 = load ptr, ptr %3, align 8
  %5 = getelementptr inbounds %"class.WasmEdge::ValType", ptr %4, i32 0, i32 0
  %6 = getelementptr inbounds %struct.anon, ptr %5, i32 0, i32 2
  %7 = load i8, ptr %6, align 2
  switch i8 %7, label %9 [
    i8 100, label %8
    i8 99, label %8
  ]

8:                                                ; preds = %1, %1
  store i1 true, ptr %2, align 1
  br label %10

9:                                                ; preds = %1
  store i1 false, ptr %2, align 1
  br label %10

10:                                               ; preds = %9, %8
  %11 = load i1, ptr %2, align 1
  ret i1 %11
}

; Function Attrs: mustprogress nounwind uwtable
define linkonce_odr hidden noundef nonnull align 8 dereferenceable(8) ptr @_ZNKSt5arrayImLm2EEixEm(ptr noundef nonnull align 8 dereferenceable(16) %0, i64 noundef %1) #0 comdat align 2 {
  %3 = alloca ptr, align 8
  %4 = alloca i64, align 8
  store ptr %0, ptr %3, align 8
  store i64 %1, ptr %4, align 8
  %5 = load ptr, ptr %3, align 8
  %6 = getelementptr inbounds %"struct.std::array", ptr %5, i32 0, i32 0
  %7 = load i64, ptr %4, align 8
  %8 = call noundef nonnull align 8 dereferenceable(8) ptr @_ZNSt14__array_traitsImLm2EE6_S_refERA2_Kmm(ptr noundef nonnull align 8 dereferenceable(16) %6, i64 noundef %7) #15
  ret ptr %8
}

; Function Attrs: mustprogress nounwind uwtable
define linkonce_odr hidden noundef nonnull align 8 dereferenceable(16) ptr @_ZNK8WasmEdge10RefVariant7toArrayEv(ptr noundef nonnull align 16 dereferenceable(16) %0) #0 comdat align 2 {
  %2 = alloca ptr, align 8
  store ptr %0, ptr %2, align 8
  %3 = load ptr, ptr %2, align 8
  %4 = getelementptr inbounds %"struct.WasmEdge::RefVariant", ptr %3, i32 0, i32 0
  ret ptr %4
}

; Function Attrs: mustprogress nounwind uwtable
define linkonce_odr hidden void @_ZN5cxx206detail25expected_move_assign_baseIvN8WasmEdge7ErrCodeELb0EEC2Ev(ptr noundef nonnull align 4 dereferenceable(8) %0) unnamed_addr #0 comdat align 2 {
  %2 = alloca ptr, align 8
  store ptr %0, ptr %2, align 8
  %3 = load ptr, ptr %2, align 8
  call void @_ZN5cxx206detail25expected_copy_assign_baseIvN8WasmEdge7ErrCodeELb0EEC2Ev(ptr noundef nonnull align 4 dereferenceable(8) %3) #15
  ret void
}

; Function Attrs: mustprogress nounwind uwtable
define linkonce_odr hidden noundef nonnull align 8 dereferenceable(8) ptr @_ZNSt5arrayImLm2EEixEm(ptr noundef nonnull align 8 dereferenceable(16) %0, i64 noundef %1) #0 comdat align 2 {
  %3 = alloca ptr, align 8
  %4 = alloca i64, align 8
  store ptr %0, ptr %3, align 8
  store i64 %1, ptr %4, align 8
  %5 = load ptr, ptr %3, align 8
  %6 = getelementptr inbounds %"struct.std::array", ptr %5, i32 0, i32 0
  %7 = load i64, ptr %4, align 8
  %8 = call noundef nonnull align 8 dereferenceable(8) ptr @_ZNSt14__array_traitsImLm2EE6_S_refERA2_Kmm(ptr noundef nonnull align 8 dereferenceable(16) %6, i64 noundef %7) #15
  ret ptr %8
}

; Function Attrs: mustprogress nounwind uwtable
define linkonce_odr hidden noundef nonnull align 8 dereferenceable(16) ptr @_ZN8WasmEdge10RefVariant7toArrayEv(ptr noundef nonnull align 16 dereferenceable(16) %0) #0 comdat align 2 {
  %2 = alloca ptr, align 8
  store ptr %0, ptr %2, align 8
  %3 = load ptr, ptr %2, align 8
  %4 = getelementptr inbounds %"struct.WasmEdge::RefVariant", ptr %3, i32 0, i32 0
  ret ptr %4
}

; Function Attrs: mustprogress nounwind uwtable
define linkonce_odr hidden void @_ZN8WasmEdge10RefVariant7setDataIvEEvRKNS_7ValTypeEPKT_(ptr noundef nonnull align 16 dereferenceable(16) %0, ptr noundef nonnull align 4 dereferenceable(8) %1, ptr noundef %2) #0 comdat align 2 {
  %4 = alloca ptr, align 8
  %5 = alloca ptr, align 8
  %6 = alloca ptr, align 8
  store ptr %0, ptr %4, align 8
  store ptr %1, ptr %5, align 8
  store ptr %2, ptr %6, align 8
  %7 = load ptr, ptr %4, align 8
  %8 = load ptr, ptr %5, align 8
  %9 = call noundef nonnull align 4 dereferenceable(8) ptr @_ZN8WasmEdge10RefVariant7getTypeEv(ptr noundef nonnull align 16 dereferenceable(16) %7) #15
  call void @llvm.memcpy.p0.p0.i64(ptr align 4 %9, ptr align 4 %8, i64 8, i1 false)
  %10 = load ptr, ptr %6, align 8
  %11 = ptrtoint ptr %10 to i64
  %12 = call noundef nonnull align 8 dereferenceable(16) ptr @_ZN8WasmEdge10RefVariant7toArrayEv(ptr noundef nonnull align 16 dereferenceable(16) %7) #15
  %13 = call noundef nonnull align 8 dereferenceable(8) ptr @_ZNSt5arrayImLm2EEixEm(ptr noundef nonnull align 8 dereferenceable(16) %12, i64 noundef 1) #15
  store i64 %11, ptr %13, align 8
  ret void
}

; Function Attrs: mustprogress nounwind uwtable
define linkonce_odr hidden noundef zeroext i1 @_ZNK8WasmEdge7ValType13isAbsHeapTypeEv(ptr noundef nonnull align 4 dereferenceable(8) %0) #0 comdat align 2 {
  %2 = alloca i1, align 1
  %3 = alloca ptr, align 8
  store ptr %0, ptr %3, align 8
  %4 = load ptr, ptr %3, align 8
  %5 = call noundef zeroext i1 @_ZNK8WasmEdge7ValType9isRefTypeEv(ptr noundef nonnull align 4 dereferenceable(8) %4) #15
  br i1 %5, label %6, label %12

6:                                                ; preds = %1
  %7 = getelementptr inbounds %"class.WasmEdge::ValType", ptr %4, i32 0, i32 0
  %8 = getelementptr inbounds %struct.anon, ptr %7, i32 0, i32 3
  %9 = load i8, ptr %8, align 1
  switch i8 %9, label %11 [
    i8 115, label %10
    i8 114, label %10
    i8 113, label %10
    i8 112, label %10
    i8 111, label %10
    i8 110, label %10
    i8 109, label %10
    i8 108, label %10
    i8 107, label %10
    i8 106, label %10
    i8 105, label %10
    i8 -128, label %10
  ]

10:                                               ; preds = %6, %6, %6, %6, %6, %6, %6, %6, %6, %6, %6, %6
  store i1 true, ptr %2, align 1
  br label %13

11:                                               ; preds = %6
  store i1 false, ptr %2, align 1
  br label %13

12:                                               ; preds = %1
  store i1 false, ptr %2, align 1
  br label %13

13:                                               ; preds = %12, %11, %10
  %14 = load i1, ptr %2, align 1
  ret i1 %14
}

; Function Attrs: mustprogress nounwind uwtable
define linkonce_odr hidden noundef ptr @_ZNK8WasmEdge10RefVariant6getPtrIvEEPT_v(ptr noundef nonnull align 16 dereferenceable(16) %0) #0 comdat align 2 {
  %2 = alloca ptr, align 8
  store ptr %0, ptr %2, align 8
  %3 = load ptr, ptr %2, align 8
  %4 = call noundef nonnull align 8 dereferenceable(16) ptr @_ZNK8WasmEdge10RefVariant7toArrayEv(ptr noundef nonnull align 16 dereferenceable(16) %3) #15
  %5 = call noundef nonnull align 8 dereferenceable(8) ptr @_ZNKSt5arrayImLm2EEixEm(ptr noundef nonnull align 8 dereferenceable(16) %4, i64 noundef 1) #15
  %6 = load i64, ptr %5, align 8
  %7 = inttoptr i64 %6 to ptr
  ret ptr %7
}

; Function Attrs: noreturn nounwind uwtable
define linkonce_odr hidden void @__clang_call_terminate(ptr noundef %0) #3 comdat {
  %2 = call ptr @__cxa_begin_catch(ptr %0) #15
  call void @_ZSt9terminatev() #16
  unreachable
}

; Function Attrs: mustprogress nounwind uwtable
define linkonce_odr hidden void @_ZN5cxx208expectedIvN8WasmEdge7ErrCodeEEC2Ev(ptr noundef nonnull align 4 dereferenceable(8) %0) unnamed_addr #0 comdat align 2 {
  %2 = alloca ptr, align 8
  store ptr %0, ptr %2, align 8
  %3 = load ptr, ptr %2, align 8
  call void @_ZN5cxx206detail25expected_move_assign_baseIvN8WasmEdge7ErrCodeELb0EEC2Ev(ptr noundef nonnull align 4 dereferenceable(8) %3) #15
  ret void
}

; Function Attrs: mustprogress nounwind uwtable
define linkonce_odr hidden void @_ZN8WasmEdge7ValType15setExternalizedEv(ptr noundef nonnull align 4 dereferenceable(8) %0) #0 comdat align 2 {
  %2 = alloca ptr, align 8
  store ptr %0, ptr %2, align 8
  %3 = load ptr, ptr %2, align 8
  %4 = getelementptr inbounds %"class.WasmEdge::ValType", ptr %3, i32 0, i32 0
  %5 = getelementptr inbounds %struct.anon, ptr %4, i32 0, i32 1
  store i8 1, ptr %5, align 1
  ret void
}

; Function Attrs: mustprogress nounwind uwtable
define linkonce_odr hidden noundef zeroext i1 @_ZNK8WasmEdge7ValType15isExternRefTypeEv(ptr noundef nonnull align 4 dereferenceable(8) %0) #0 comdat align 2 {
  %2 = alloca ptr, align 8
  store ptr %0, ptr %2, align 8
  %3 = load ptr, ptr %2, align 8
  %4 = getelementptr inbounds %"class.WasmEdge::ValType", ptr %3, i32 0, i32 0
  %5 = getelementptr inbounds %struct.anon, ptr %4, i32 0, i32 3
  %6 = load i8, ptr %5, align 1
  %7 = icmp eq i8 %6, 111
  br i1 %7, label %18, label %8

8:                                                ; preds = %1
  %9 = getelementptr inbounds %"class.WasmEdge::ValType", ptr %3, i32 0, i32 0
  %10 = getelementptr inbounds %struct.anon, ptr %9, i32 0, i32 3
  %11 = load i8, ptr %10, align 1
  %12 = icmp eq i8 %11, 114
  br i1 %12, label %18, label %13

13:                                               ; preds = %8
  %14 = getelementptr inbounds %"class.WasmEdge::ValType", ptr %3, i32 0, i32 0
  %15 = getelementptr inbounds %struct.anon, ptr %14, i32 0, i32 1
  %16 = load i8, ptr %15, align 1
  %17 = icmp ne i8 %16, 0
  br label %18

18:                                               ; preds = %13, %8, %1
  %19 = phi i1 [ true, %8 ], [ true, %1 ], [ %17, %13 ]
  ret i1 %19
}

; Function Attrs: mustprogress nounwind uwtable
define linkonce_odr hidden void @_ZN8WasmEdge7ValType15setInternalizedEv(ptr noundef nonnull align 4 dereferenceable(8) %0) #0 comdat align 2 {
  %2 = alloca ptr, align 8
  store ptr %0, ptr %2, align 8
  %3 = load ptr, ptr %2, align 8
  %4 = getelementptr inbounds %"class.WasmEdge::ValType", ptr %3, i32 0, i32 0
  %5 = getelementptr inbounds %struct.anon, ptr %4, i32 0, i32 1
  store i8 0, ptr %5, align 1
  ret void
}

; Function Attrs: mustprogress nounwind uwtable
define linkonce_odr hidden noundef nonnull align 4 dereferenceable(8) ptr @_ZN8WasmEdge10RefVariant7getTypeEv(ptr noundef nonnull align 16 dereferenceable(16) %0) #0 comdat align 2 {
  %2 = alloca ptr, align 8
  store ptr %0, ptr %2, align 8
  %3 = load ptr, ptr %2, align 8
  %4 = call noundef nonnull align 8 dereferenceable(16) ptr @_ZN8WasmEdge10RefVariant7toArrayEv(ptr noundef nonnull align 16 dereferenceable(16) %3) #15
  %5 = call noundef nonnull align 8 dereferenceable(8) ptr @_ZNSt5arrayImLm2EEixEm(ptr noundef nonnull align 8 dereferenceable(16) %4, i64 noundef 0) #15
  ret ptr %5
}

; Function Attrs: mustprogress nounwind uwtable
define linkonce_odr hidden void @_ZN8WasmEdge10RefVariantC2ERKNS_7ValTypeE(ptr noundef nonnull align 16 dereferenceable(16) %0, ptr noundef nonnull align 4 dereferenceable(8) %1) unnamed_addr #0 comdat align 2 {
  %3 = alloca ptr, align 8
  %4 = alloca ptr, align 8
  store ptr %0, ptr %3, align 8
  store ptr %1, ptr %4, align 8
  %5 = load ptr, ptr %3, align 8
  %6 = load ptr, ptr %4, align 8
  call void @_ZN8WasmEdge10RefVariant7setDataIvEEvRKNS_7ValTypeEPKT_(ptr noundef nonnull align 16 dereferenceable(16) %5, ptr noundef nonnull align 4 dereferenceable(8) %6, ptr noundef null) #15
  ret void
}

; Function Attrs: mustprogress nounwind uwtable
define linkonce_odr hidden void @_ZN8WasmEdge7ValTypeC2ENS_8TypeCodeES1_(ptr noundef nonnull align 4 dereferenceable(8) %0, i8 noundef zeroext %1, i8 noundef zeroext %2) unnamed_addr #0 comdat align 2 {
  %4 = alloca ptr, align 8
  %5 = alloca i8, align 1
  %6 = alloca i8, align 1
  store ptr %0, ptr %4, align 8
  store i8 %1, ptr %5, align 1
  store i8 %2, ptr %6, align 1
  %7 = load ptr, ptr %4, align 8
  %8 = getelementptr inbounds %"class.WasmEdge::ValType", ptr %7, i32 0, i32 0
  %9 = getelementptr inbounds %struct.anon, ptr %8, i32 0, i32 1
  store i8 0, ptr %9, align 1
  %10 = load i8, ptr %5, align 1
  %11 = getelementptr inbounds %"class.WasmEdge::ValType", ptr %7, i32 0, i32 0
  %12 = getelementptr inbounds %struct.anon, ptr %11, i32 0, i32 2
  store i8 %10, ptr %12, align 2
  %13 = load i8, ptr %6, align 1
  %14 = getelementptr inbounds %"class.WasmEdge::ValType", ptr %7, i32 0, i32 0
  %15 = getelementptr inbounds %struct.anon, ptr %14, i32 0, i32 3
  store i8 %13, ptr %15, align 1
  %16 = getelementptr inbounds %"class.WasmEdge::ValType", ptr %7, i32 0, i32 0
  %17 = getelementptr inbounds %struct.anon, ptr %16, i32 0, i32 4
  store i32 0, ptr %17, align 4
  %18 = call noundef zeroext i1 @_ZNK8WasmEdge7ValType13isAbsHeapTypeEv(ptr noundef nonnull align 4 dereferenceable(8) %7) #15
  br i1 %18, label %19, label %20

19:                                               ; preds = %3
  br label %22

20:                                               ; preds = %3
  unreachable

21:                                               ; No predecessors!
  br label %22

22:                                               ; preds = %21, %19
  ret void
}

; Function Attrs: mustprogress nounwind uwtable
define linkonce_odr hidden noundef zeroext i1 @_ZNK8WasmEdge10RefVariant6isNullEv(ptr noundef nonnull align 16 dereferenceable(16) %0) #0 comdat align 2 {
  %2 = alloca ptr, align 8
  store ptr %0, ptr %2, align 8
  %3 = load ptr, ptr %2, align 8
  %4 = call noundef ptr @_ZNK8WasmEdge10RefVariant6getPtrIvEEPT_v(ptr noundef nonnull align 16 dereferenceable(16) %3) #15
  %5 = icmp eq ptr %4, null
  ret i1 %5
}

; Function Attrs: mustprogress nounwind uwtable
define void @_ZNK8WasmEdge8Executor8Executor12runRefConvOpERNS_10RefVariantENS_8TypeCodeE(ptr dead_on_unwind noalias writable sret(%"class.cxx20::expected") align 4 %0, ptr noundef nonnull align 8 dereferenceable(408) %1, ptr noundef nonnull align 16 dereferenceable(16) %2, i8 noundef zeroext %3) #0 align 2 personality ptr @__gxx_personality_v0 {
  %5 = alloca ptr, align 8
  %6 = alloca ptr, align 8
  %7 = alloca ptr, align 8
  %8 = alloca i8, align 1
  %9 = alloca %"struct.WasmEdge::RefVariant", align 16
  %10 = alloca %"class.WasmEdge::ValType", align 4
  %11 = alloca %"class.WasmEdge::ValType", align 4
  %12 = alloca %"struct.WasmEdge::RefVariant", align 16
  %13 = alloca %"class.WasmEdge::ValType", align 4
  store ptr %0, ptr %5, align 8
  store ptr %1, ptr %6, align 8
  store ptr %2, ptr %7, align 8
  store i8 %3, ptr %8, align 1
  %14 = load i8, ptr %8, align 1
  %15 = icmp eq i8 %14, 110
  br i1 %15, label %16, label %33

16:                                               ; preds = %4
  %17 = load ptr, ptr %7, align 8
  %18 = invoke noundef zeroext i1 @_ZNK8WasmEdge10RefVariant6isNullEv(ptr noundef nonnull align 16 dereferenceable(16) %17)
          to label %19 unwind label %44

19:                                               ; preds = %16
  br i1 %18, label %20, label %22

20:                                               ; preds = %19
  call void @_ZN8WasmEdge7ValTypeC2ENS_8TypeCodeES1_(ptr noundef nonnull align 4 dereferenceable(8) %10, i8 noundef zeroext 99, i8 noundef zeroext 113) #15
  call void @_ZN8WasmEdge10RefVariantC2ERKNS_7ValTypeE(ptr noundef nonnull align 16 dereferenceable(16) %9, ptr noundef nonnull align 4 dereferenceable(8) %10) #15
  %21 = load ptr, ptr %7, align 8
  call void @llvm.memcpy.p0.p0.i64(ptr align 16 %21, ptr align 16 %9, i64 16, i1 false)
  br label %32

22:                                               ; preds = %19
  %23 = load ptr, ptr %7, align 8
  %24 = call noundef nonnull align 4 dereferenceable(8) ptr @_ZN8WasmEdge10RefVariant7getTypeEv(ptr noundef nonnull align 16 dereferenceable(16) %23) #15
  call void @_ZN8WasmEdge7ValType15setInternalizedEv(ptr noundef nonnull align 4 dereferenceable(8) %24) #15
  %25 = load ptr, ptr %7, align 8
  %26 = call noundef nonnull align 4 dereferenceable(8) ptr @_ZN8WasmEdge10RefVariant7getTypeEv(ptr noundef nonnull align 16 dereferenceable(16) %25) #15
  %27 = call noundef zeroext i1 @_ZNK8WasmEdge7ValType15isExternRefTypeEv(ptr noundef nonnull align 4 dereferenceable(8) %26) #15
  br i1 %27, label %28, label %31

28:                                               ; preds = %22
  call void @_ZN8WasmEdge7ValTypeC2ENS_8TypeCodeES1_(ptr noundef nonnull align 4 dereferenceable(8) %11, i8 noundef zeroext 100, i8 noundef zeroext 110) #15
  %29 = load ptr, ptr %7, align 8
  %30 = call noundef nonnull align 4 dereferenceable(8) ptr @_ZN8WasmEdge10RefVariant7getTypeEv(ptr noundef nonnull align 16 dereferenceable(16) %29) #15
  call void @llvm.memcpy.p0.p0.i64(ptr align 4 %30, ptr align 4 %11, i64 8, i1 false)
  br label %31

31:                                               ; preds = %28, %22
  br label %32

32:                                               ; preds = %31, %20
  br label %43

33:                                               ; preds = %4
  %34 = load ptr, ptr %7, align 8
  %35 = invoke noundef zeroext i1 @_ZNK8WasmEdge10RefVariant6isNullEv(ptr noundef nonnull align 16 dereferenceable(16) %34)
          to label %36 unwind label %44

36:                                               ; preds = %33
  br i1 %35, label %37, label %39

37:                                               ; preds = %36
  call void @_ZN8WasmEdge7ValTypeC2ENS_8TypeCodeES1_(ptr noundef nonnull align 4 dereferenceable(8) %13, i8 noundef zeroext 99, i8 noundef zeroext 114) #15
  call void @_ZN8WasmEdge10RefVariantC2ERKNS_7ValTypeE(ptr noundef nonnull align 16 dereferenceable(16) %12, ptr noundef nonnull align 4 dereferenceable(8) %13) #15
  %38 = load ptr, ptr %7, align 8
  call void @llvm.memcpy.p0.p0.i64(ptr align 16 %38, ptr align 16 %12, i64 16, i1 false)
  br label %42

39:                                               ; preds = %36
  %40 = load ptr, ptr %7, align 8
  %41 = call noundef nonnull align 4 dereferenceable(8) ptr @_ZN8WasmEdge10RefVariant7getTypeEv(ptr noundef nonnull align 16 dereferenceable(16) %40) #15
  call void @_ZN8WasmEdge7ValType15setExternalizedEv(ptr noundef nonnull align 4 dereferenceable(8) %41) #15
  br label %42

42:                                               ; preds = %39, %37
  br label %43

43:                                               ; preds = %42, %32
  call void @llvm.memset.p0.i64(ptr align 4 %0, i8 0, i64 8, i1 false)
  call void @_ZN5cxx208expectedIvN8WasmEdge7ErrCodeEEC2Ev(ptr noundef nonnull align 4 dereferenceable(8) %0) #15
  ret void

44:                                               ; preds = %33, %16
  %45 = landingpad { ptr, i32 }
          catch ptr null
  %46 = extractvalue { ptr, i32 } %45, 0
  call void @__clang_call_terminate(ptr %46) #16
  unreachable
}