; Function Attrs: mustprogress nofree norecurse nosync nounwind willreturn memory(argmem: readwrite) uwtable
define void @_ZNK8WasmEdge8Executor8Executor12runRefConvOpERNS_10RefVariantENS_8TypeCodeE(ptr dead_on_unwind noalias nocapture writable writeonly sret(%"class.cxx20::expected") align 4 %0, ptr nocapture noundef nonnull readnone align 8 dereferenceable(408) %1, ptr nocapture noundef nonnull align 16 dereferenceable(16) %2, i8 noundef zeroext %3) local_unnamed_addr #4 align 2 personality ptr @__gxx_personality_v0 {
  %5 = icmp eq i8 %3, 110
  %6 = getelementptr inbounds i8, ptr %2, i64 8
  %7 = load i64, ptr %6, align 8
  %8 = icmp eq i64 %7, 0
  br i1 %5, label %9, label %16

9:                                                ; preds = %4
  br i1 %8, label %10, label %11

10:                                               ; preds = %9
  store i64 1902313472, ptr %2, align 16
  br label %_ZNK8WasmEdge7ValType15isExternRefTypeEv.exit

11:                                               ; preds = %9
  %12 = getelementptr inbounds i8, ptr %2, i64 1
  store i8 0, ptr %12, align 1
  %13 = getelementptr inbounds i8, ptr %2, i64 3
  %14 = load i8, ptr %13, align 1
  switch i8 %14, label %_ZNK8WasmEdge7ValType15isExternRefTypeEv.exit [
    i8 111, label %15
    i8 114, label %15
  ]

15:                                               ; preds = %11, %11
  store i64 1852047360, ptr %2, align 16
  br label %_ZNK8WasmEdge7ValType15isExternRefTypeEv.exit

16:                                               ; preds = %4
  br i1 %8, label %17, label %18

17:                                               ; preds = %16
  store i64 1919090688, ptr %2, align 16
  br label %_ZNK8WasmEdge7ValType15isExternRefTypeEv.exit

18:                                               ; preds = %16
  %19 = getelementptr inbounds i8, ptr %2, i64 1
  store i8 1, ptr %19, align 1
  br label %_ZNK8WasmEdge7ValType15isExternRefTypeEv.exit

_ZNK8WasmEdge7ValType15isExternRefTypeEv.exit:    ; preds = %11, %17, %18, %10, %15
  store i64 1, ptr %0, align 4
  ret void
}